(dp0
Vreplied
p1
F3.819327731092437
sVgates
p2
F35.64705882352941
sVjust
p3
F4.113122171945701
sVwhen
p4
F1.5277310924369747
sVover
p5
F3.0124275062137533
sVdollar
p6
F320.82352941176475
sVmonth
p7
F106.94117647058825
sVdisabled
p8
F106.94117647058825
sVlooks
p9
F26.73529411764706
sVreplies
p10
F106.94117647058825
sVgo
p11
F2.6735294117647057
sVyes
p12
F2.487004103967168
sVstill
p13
F1.4451510333863276
sVyet
p14
F4.752941176470588
sVseemed
p15
F1.1751777634130576
sV!',
p16
F106.94117647058825
sV!'
p17
F17.823529411764707
sVhow
p18
F2.275344180225282
sVll
p19
F8.226244343891402
sVfather
p20
F21.388235294117646
sVyoung
p21
F14.258823529411766
sVday
p22
F3.9607843137254903
sVoutside
p23
F8.911764705882353
sVto
p24
F1.1150264845274602
sVfinally
p25
F9.72192513368984
sVfatal
p26
F106.94117647058825
sVhope
p27
F7.638655462184874
sVgave
p28
F4.86096256684492
sVdo
p29
F1.5498721227621484
sVthem
p30
F0.8290013679890561
sVhis
p31
F0.39607843137254906
sVwhich
p32
F0.5373928465858705
sVsitting
p33
F10.694117647058823
sVvery
p34
F1.0484429065743945
sVcouple
p35
F374.29411764705884
sVwatch
p36
F21.388235294117646
sVpossibly
p37
F53.47058823529412
sVgame
p38
F35.64705882352941
sVshouted
p39
F21.388235294117646
sVknow
p40
F2.6735294117647057
sVthey
p41
F1.3451720310765816
sVdesk
p42
F213.8823529411765
sVfront
p43
F3.9607843137254903
sVworld
p44
F2.0565610859728505
sVson
p45
F213.8823529411765
sVhim
p46
F0.7666034155597723
sVget
p47
F14.071207430340557
sVheaven
p48
F38.19327731092437
sVdid
p49
F2.9298952457695404
sVmarried
p50
F320.82352941176475
sVyeah
p51
F106.94117647058825
sVpriest
p52
F53.47058823529412
sVt
p53
F3.1922739244951712
sVguy
p54
F106.94117647058825
sVdidn
p55
F11.882352941176471
sVsays
p56
F30.554621848739497
sVporn
p57
F213.8823529411765
sVidea
p58
F7.129411764705883
sVcomputer
p59
F106.94117647058825
sVare
p60
F0.42776470588235294
sVlawyer
p61
F106.94117647058825
sVhappen
p62
F35.64705882352941
sVpeter
p63
F641.6470588235295
sVwonder
p64
F21.388235294117646
sVwas
p65
F0.1468972204266322
sVwhat
p66
F2.501547987616099
sVlearns
p67
F106.94117647058825
sV'
p68
F3.665322580645161
sVice
p69
F106.94117647058825
sVfind
p70
F17.110588235294117
sVlooking
p71
F3.1453287197231834
sVwaiting
p72
F42.77647058823529
sVclipboard
p73
F106.94117647058825
sVgoes
p74
F17.823529411764707
sV;
p75
F0.32308512528878625
sVground
p76
F21.388235294117646
sV?
p77
F3.752321981424149
sVwe
p78
F0.852120928052496
sVnever
p79
F1.5498721227621484
sVhere
p80
F2.1824729891956784
sVif
p81
F1.520490660719264
sVlet
p82
F2.814241486068111
sVask
p83
F4.86096256684492
sVcome
p84
F1.9096638655462186
sVbedraggled
p85
F106.94117647058825
sVfaced
p86
F35.64705882352941
sVon
p87
F1.0553405572755419
sVgreat
p88
F1.2581314878892733
sVpearly
p89
F106.94117647058825
sVputs
p90
F53.47058823529412
sVoh
p91
F3.3419117647058827
sVinvolved
p92
F106.94117647058825
sVcould
p93
F2.1246591351772497
sVmonths
p94
F213.8823529411765
sVs
p95
F1.9096638655462186
sVimportant
p96
F15.277310924369749
sVonto
p97
F106.94117647058825
sVasked
p98
F4.27764705882353
sVwaited
p99
F106.94117647058825
sVfirst
p100
F1.4649476228847702
sVfamily
p101
F21.388235294117646
sVinto
p102
F1.5062137531068767
sVone
p103
F1.074785693171741
sVbecause
p104
F1.8125623130608175
sV.\u201d
p105
F106.94117647058825
sVanother
p106
F3.5647058823529414
sVdumbest
p107
F106.94117647058825
sV.'
p108
F6.290657439446367
sVfrightened
p109
F35.64705882352941
sVred
p110
F2.096885813148789
sV"
p111
F0.40022895385699186
sVcream
p112
F106.94117647058825
sVtakes
p113
F53.47058823529412
sVher
p114
F11.882352941176471
sVprove
p115
F106.94117647058825
sVdivorce
p116
F213.8823529411765
sV."
p117
F0.820520535579961
sVquestion
p118
F5.9411764705882355
sVhey
p119
F106.94117647058825
sVlong
p120
F1.4258823529411764
sV.
p121
F0.984000519604235
sVanyone
p122
F7.638655462184874
sVtheir
p123
F0.9721925133689839
sVreturns
p124
F106.94117647058825
sVof
p125
F0.12398976982097186
sVwondering
p126
F21.388235294117646
sVthen
p127
F0.769360981802793
sVthemselves
p128
F5.9411764705882355
sV:
p129
F9.72192513368984
sV!\u201d
p130
F213.8823529411765
sVtell
p131
F2.096885813148789
sVfriend
p132
F3.68762677484787
sVasks
p133
F106.94117647058825
sVway
p134
F2.3248081841432224
sVboy
p135
F47.529411764705884
sVhotel
p136
F11.882352941176471
sVtook
p137
F2.742081447963801
sVbut
p138
F0.2414022042225468
sVit
p139
F1.342357863647551
sVaccident
p140
F10.694117647058823
sVsomewhat
p141
F5.0924369747899165
sVwith
p142
F0.19062598301352626
sV,
p143
F0.7664935240151107
sVhe
p144
F0.3798976073555532
sVcustomer
p145
F213.8823529411765
sVhas
p146
F0.9901960784313726
sVshowed
p147
F15.277310924369749
sVthis
p148
F0.7452346792375486
sVcar
p149
F4.277647058823529
sVbill
p150
F213.8823529411765
sVup
p151
F1.328461819510413
sVwhile
p152
F15.27731092436975
sVcan
p153
F0.8765670202507233
sVwere
p154
F0.4817170111287758
sVquarters
p155
F160.41176470588238
sVmy
p156
F0.6855203619909502
sVleaves
p157
F80.20588235294119
sVcone
p158
F106.94117647058825
sVand
p159
F0.7740012772298305
sVwould
p160
F0.8911764705882353
sVsees
p161
F35.64705882352941
sVwant
p162
F5.628482972136222
sV...
p163
F106.94117647058825
sVprocess
p164
F53.47058823529412
sVis
p165
F1.137672090112641
sVin
p166
F1.0427633675355301
sVstore
p167
F106.94117647058825
sVfuck
p168
F106.94117647058825
sVas
p169
F0.21517339330098237
sVat
p170
F0.30907854471268276
sVhave
p171
F0.8322270542458228
sVwalks
p172
F106.94117647058825
sVanger
p173
F17.823529411764707
sVwork
p174
F17.823529411764707
sVany
p175
F1.7531340405014466
sVsat
p176
F2.814241486068111
sV!
p177
F2.7776928953399542
sVcatholic
p178
F106.94117647058825
sVthree
p179
F2.5462184873949583
sVdying
p180
F35.64705882352941
sVthings
p181
F3.240641711229946
sVbegan
p182
F2.9705882352941178
sVthat
p183
F0.36833929898021206
sV-
p184
F0.36374549819927976
sVlicked
p185
F106.94117647058825
sVsame
p186
F4.649616368286445
sValso
p187
F2.890302066772655
sVother
p188
F1.1624040920716112
sVslammed
p189
F106.94117647058825
sVtake
p190
F10.694117647058825
sVsick
p191
F15.277310924369749
sVinstead
p192
F35.64705882352941
sVyou
p193
F1.3202614379084967
sVout
p194
F2.0467210807768086
sV\u201c
p195
F641.6470588235295
sVsaid
p196
F0.6327880264531849
sVbegin
p197
F35.64705882352941
sV,'
p198
F16.452488687782804
sVmay
p199
F1.7823529411764707
sVafter
p200
F1.7823529411764707
sVme
p201
F2.501547987616099
sVhand
p202
F2.275344180225282
sVinforms
p203
F106.94117647058825
sVwrong
p204
F10.694117647058823
sVregular
p205
F106.94117647058825
sVbarber
p206
F320.82352941176475
sVtwo
p207
F2.890302066772655
sVcoming
p208
F4.649616368286445
sV?'
p209
F35.64705882352941
sVlibrarian
p210
F106.94117647058825
sVwhy
p211
F1.9803921568627452
sVkid
p212
F213.8823529411765
sVa
p213
F0.6138988316336867
sV?\u201d
p214
F320.82352941176475
sVdon
p215
F5.347058823529412
sVfor
p216
F0.33735386899239195
sVcalls
p217
F53.47058823529412
sVwhispers
p218
F106.94117647058825
sVi
p219
F0.9666999002991027
sVlater
p220
F53.47058823529412
sVst
p221
F58.33155080213904
sVpassed
p222
F5.347058823529411
sVtime
p223
F1.5498721227621484
sVthe
p224
F1.0
s.